target datalayout = "e-m:e-p270:32:32-p271:32:32-p272:64:64-i64:64-i128:128-f80:128-n8:16:32:64-S128"
target triple = "x86_64-pc-linux-gnu"

%struct.dissect_info_t = type { ptr, ptr, i32 }
%struct._exp_pdu_data_t = type { i32, ptr, i32, i32, ptr }

@.str.20 = private unnamed_addr constant [18 x i8] c"logcat_text_brief\00", align 1
@exported_pdu_tap = internal global i32 -1, align 4
@__const.dissect_logcat_text_brief.dinfo = private unnamed_addr constant { ptr, ptr, i32, [4 x i8] } { ptr @brief_regex, ptr @dissect_logcat_text_brief.getters, i32 4, [4 x i8] zeroinitializer }, align 8

; Function Attrs: null_pointer_is_valid sspstrong uwtable
define internal void @add_exported_pdu(ptr noundef %0, ptr noundef %1, ptr noundef %2) #0 {
  %4 = alloca ptr, align 8
  %5 = alloca ptr, align 8
  %6 = alloca ptr, align 8
  %7 = alloca ptr, align 8
  store ptr %0, ptr %4, align 8
  store ptr %1, ptr %5, align 8
  store ptr %2, ptr %6, align 8
  %8 = load i32, ptr @exported_pdu_tap, align 4
  %9 = call zeroext i1 @have_tap_listener(i32 noundef %8)
  br i1 %9, label %10, label %28

10:                                               ; preds = %3
  call void @llvm.lifetime.start.p0(i64 8, ptr %7) #7
  %11 = load ptr, ptr %5, align 8
  %12 = load ptr, ptr %6, align 8
  %13 = call ptr @export_pdu_create_tags(ptr noundef %11, ptr noundef %12, i16 noundef zeroext 12, ptr noundef null)
  store ptr %13, ptr %7, align 8
  %14 = load ptr, ptr %4, align 8
  %15 = call i32 @tvb_captured_length(ptr noundef %14)
  %16 = load ptr, ptr %7, align 8
  %17 = getelementptr inbounds nuw %struct._exp_pdu_data_t, ptr %16, i32 0, i32 2
  store i32 %15, ptr %17, align 8
  %18 = load ptr, ptr %4, align 8
  %19 = call i32 @tvb_reported_length(ptr noundef %18)
  %20 = load ptr, ptr %7, align 8
  %21 = getelementptr inbounds nuw %struct._exp_pdu_data_t, ptr %20, i32 0, i32 3
  store i32 %19, ptr %21, align 4
  %22 = load ptr, ptr %4, align 8
  %23 = load ptr, ptr %7, align 8
  %24 = getelementptr inbounds nuw %struct._exp_pdu_data_t, ptr %23, i32 0, i32 4
  store ptr %22, ptr %24, align 8
  %25 = load i32, ptr @exported_pdu_tap, align 4
  %26 = load ptr, ptr %5, align 8
  %27 = load ptr, ptr %7, align 8
  call void @tap_queue_packet(i32 noundef %25, ptr noundef %26, ptr noundef %27)
  call void @llvm.lifetime.end.p0(i64 8, ptr %7) #7
  br label %28

28:                                               ; preds = %10, %3
  ret void
}

; Function Attrs: null_pointer_is_valid sspstrong uwtable
define internal i32 @dissect_logcat_text_brief(ptr noundef %0, ptr noundef %1, ptr noundef %2, ptr noundef %3) #0 {
  %5 = alloca ptr, align 8
  %6 = alloca ptr, align 8
  %7 = alloca ptr, align 8
  %8 = alloca ptr, align 8
  %9 = alloca %struct.dissect_info_t, align 8
  store ptr %0, ptr %5, align 8
  store ptr %1, ptr %6, align 8
  store ptr %2, ptr %7, align 8
  store ptr %3, ptr %8, align 8
  call void @llvm.lifetime.start.p0(i64 24, ptr %9) #7
  call void @llvm.memcpy.p0.p0.i64(ptr align 8 %9, ptr align 8 @__const.dissect_logcat_text_brief.dinfo, i64 24, i1 false)
  %10 = load ptr, ptr %5, align 8
  %11 = load ptr, ptr %6, align 8
  call void @add_exported_pdu(ptr noundef %10, ptr noundef %11, ptr noundef @.str.20)
  %12 = load ptr, ptr %5, align 8
  %13 = load ptr, ptr %7, align 8
  %14 = load ptr, ptr %6, align 8
  %15 = call i32 @dissect_logcat_text(ptr noundef %12, ptr noundef %13, ptr noundef %14, ptr noundef %9)
  call void @llvm.lifetime.end.p0(i64 24, ptr %9) #7
  ret i32 %15
}